target datalayout = "e-m:e-p270:32:32-p271:32:32-p272:64:64-i64:64-i128:128-f80:128-n8:16:32:64-S128"
target triple = "x86_64-pc-linux-gnu"

%struct.lv_ll_t = type { i32, ptr, ptr }
%struct._lv_display_t = type { i32, i32, i32, i32, i32, i32, i32, ptr, ptr, ptr, ptr, ptr, i32, i32, i8, i32, i16, i32, [32 x %struct.lv_area_t], [32 x i8], i32, i32, %struct.lv_ll_t, %struct._lv_draw_buf_t, %struct._lv_draw_buf_t, ptr, ptr, ptr, ptr, ptr, ptr, ptr, ptr, ptr, ptr, i32, i8, ptr, ptr, %struct.lv_event_list_t, i8, ptr, ptr, i32, %struct.lv_area_t }
%struct._lv_draw_buf_t = type { %struct.lv_image_header_t, i32, ptr, ptr, ptr }
%struct.lv_image_header_t = type <{ i64, i32 }>
%struct.lv_event_list_t = type { %struct._lv_array_t, i8 }
%struct._lv_array_t = type { ptr, i32, i32, i32, i8 }
%struct.lv_area_t = type { i32, i32, i32, i32 }
%struct._lv_anim_t = type { ptr, ptr, ptr, ptr, ptr, ptr, ptr, ptr, ptr, i32, i32, i32, i32, i32, i32, i32, i32, i32, %union._lv_anim_path_para_t, i32, i8 }
%union._lv_anim_path_para_t = type { %struct.lv_anim_bezier3_para_t }
%struct.lv_anim_bezier3_para_t = type { i16, i16, i16, i16 }

; Function Attrs: nounwind uwtable
define internal void @scr_anim_completed(ptr noundef %0) #0 {
  %2 = alloca ptr, align 8
  %3 = alloca ptr, align 8
  store ptr %0, ptr %2, align 8, !tbaa !7
  call void @llvm.lifetime.start.p0(i64 8, ptr %3) #5
  %4 = load ptr, ptr %2, align 8, !tbaa !7
  %5 = getelementptr inbounds nuw %struct._lv_anim_t, ptr %4, i32 0, i32 0
  %6 = load ptr, ptr %5, align 8, !tbaa !78
  %7 = call ptr @lv_obj_get_display(ptr noundef %6)
  store ptr %7, ptr %3, align 8, !tbaa !7
  %8 = load ptr, ptr %3, align 8, !tbaa !7
  %9 = getelementptr inbounds nuw %struct._lv_display_t, ptr %8, i32 0, i32 31
  %10 = load ptr, ptr %9, align 8, !tbaa !48
  %11 = call i32 @lv_obj_send_event(ptr noundef %10, i32 noundef 47, ptr noundef null)
  %12 = load ptr, ptr %3, align 8, !tbaa !7
  %13 = getelementptr inbounds nuw %struct._lv_display_t, ptr %12, i32 0, i32 33
  %14 = load ptr, ptr %13, align 8, !tbaa !76
  %15 = call i32 @lv_obj_send_event(ptr noundef %14, i32 noundef 48, ptr noundef null)
  %16 = load ptr, ptr %3, align 8, !tbaa !7
  %17 = getelementptr inbounds nuw %struct._lv_display_t, ptr %16, i32 0, i32 33
  %18 = load ptr, ptr %17, align 8, !tbaa !76
  %19 = icmp ne ptr %18, null
  br i1 %19, label %20, label %32

20:                                               ; preds = %1
  %21 = load ptr, ptr %3, align 8, !tbaa !7
  %22 = getelementptr inbounds nuw %struct._lv_display_t, ptr %21, i32 0, i32 36
  %23 = load i8, ptr %22, align 4
  %24 = lshr i8 %23, 1
  %25 = and i8 %24, 1
  %26 = zext i8 %25 to i32
  %27 = icmp ne i32 %26, 0
  br i1 %27, label %28, label %32

28:                                               ; preds = %20
  %29 = load ptr, ptr %3, align 8, !tbaa !7
  %30 = getelementptr inbounds nuw %struct._lv_display_t, ptr %29, i32 0, i32 33
  %31 = load ptr, ptr %30, align 8, !tbaa !76
  call void @lv_obj_delete(ptr noundef %31)
  br label %32

32:                                               ; preds = %28, %20, %1
  %33 = load ptr, ptr %3, align 8, !tbaa !7
  %34 = getelementptr inbounds nuw %struct._lv_display_t, ptr %33, i32 0, i32 33
  store ptr null, ptr %34, align 8, !tbaa !76
  %35 = load ptr, ptr %3, align 8, !tbaa !7
  %36 = getelementptr inbounds nuw %struct._lv_display_t, ptr %35, i32 0, i32 36
  %37 = load i8, ptr %36, align 4
  %38 = and i8 %37, -2
  %39 = or i8 %38, 0
  store i8 %39, ptr %36, align 4
  %40 = load ptr, ptr %3, align 8, !tbaa !7
  %41 = getelementptr inbounds nuw %struct._lv_display_t, ptr %40, i32 0, i32 34
  store ptr null, ptr %41, align 8, !tbaa !77
  %42 = load ptr, ptr %2, align 8, !tbaa !7
  %43 = getelementptr inbounds nuw %struct._lv_anim_t, ptr %42, i32 0, i32 0
  %44 = load ptr, ptr %43, align 8, !tbaa !78
  %45 = call zeroext i1 @lv_obj_remove_local_style_prop(ptr noundef %44, i8 noundef zeroext 95, i32 noundef 0)
  %46 = load ptr, ptr %3, align 8, !tbaa !7
  %47 = getelementptr inbounds nuw %struct._lv_display_t, ptr %46, i32 0, i32 31
  %48 = load ptr, ptr %47, align 8, !tbaa !48
  call void @lv_obj_invalidate(ptr noundef %48)
  call void @llvm.lifetime.end.p0(i64 8, ptr %3) #5
  ret void
}