; Function Attrs: nounwind uwtable
define internal void @scr_anim_completed(ptr nocapture noundef readonly %0) #0 {
  %2 = load ptr, ptr %0, align 8, !tbaa !73
  %3 = tail call ptr @lv_obj_get_display(ptr noundef %2) #13
  %4 = getelementptr inbounds nuw i8, ptr %3, i64 800
  %5 = load ptr, ptr %4, align 8, !tbaa !45
  %6 = tail call i32 @lv_obj_send_event(ptr noundef %5, i32 noundef 47, ptr noundef null) #13
  %7 = getelementptr inbounds nuw i8, ptr %3, i64 816
  %8 = load ptr, ptr %7, align 8, !tbaa !71
  %9 = tail call i32 @lv_obj_send_event(ptr noundef %8, i32 noundef 48, ptr noundef null) #13
  %10 = load ptr, ptr %7, align 8, !tbaa !71
  %.not = icmp eq ptr %10, null
  br i1 %.not, label %16, label %11

11:                                               ; preds = %1
  %12 = getelementptr inbounds nuw i8, ptr %3, i64 836
  %13 = load i8, ptr %12, align 4
  %14 = and i8 %13, 2
  %.not11 = icmp eq i8 %14, 0
  br i1 %.not11, label %16, label %15

15:                                               ; preds = %11
  tail call void @lv_obj_delete(ptr noundef nonnull %10) #13
  br label %16

16:                                               ; preds = %15, %11, %1
  store ptr null, ptr %7, align 8, !tbaa !71
  %17 = getelementptr inbounds nuw i8, ptr %3, i64 836
  %18 = load i8, ptr %17, align 4
  %19 = and i8 %18, -2
  store i8 %19, ptr %17, align 4
  %20 = getelementptr inbounds nuw i8, ptr %3, i64 824
  store ptr null, ptr %20, align 8, !tbaa !72
  %21 = load ptr, ptr %0, align 8, !tbaa !73
  %22 = tail call zeroext i1 @lv_obj_remove_local_style_prop(ptr noundef %21, i8 noundef zeroext 95, i32 noundef 0) #13
  %23 = load ptr, ptr %4, align 8, !tbaa !45
  tail call void @lv_obj_invalidate(ptr noundef %23) #13
  ret void
}